	.file	"main.cpp"
	.text
.Ltext0:
	.section	.rodata
	.type	_ZStL19piecewise_construct, @object
	.size	_ZStL19piecewise_construct, 1
_ZStL19piecewise_construct:
	.zero	1
	.local	_ZStL8__ioinit
	.comm	_ZStL8__ioinit,1,1
	.align 4
	.type	_ZN9__gnu_cxxL21__default_lock_policyE, @object
	.size	_ZN9__gnu_cxxL21__default_lock_policyE, 4
_ZN9__gnu_cxxL21__default_lock_policyE:
	.long	2
	.type	_ZStL13allocator_arg, @object
	.size	_ZStL13allocator_arg, 1
_ZStL13allocator_arg:
	.zero	1
	.type	_ZStL6ignore, @object
	.size	_ZStL6ignore, 1
_ZStL6ignore:
	.zero	1
	.section	.text._ZNSt5tupleIJPiSt14default_deleteIiEEEC1IS0_S2_Lb1EEEv,"axG",@progbits,_ZNSt5tupleIJPiSt14default_deleteIiEEEC1IS0_S2_Lb1EEEv,comdat
	.align 2
	.weak	_ZNSt5tupleIJPiSt14default_deleteIiEEEC1IS0_S2_Lb1EEEv
	.type	_ZNSt5tupleIJPiSt14default_deleteIiEEEC1IS0_S2_Lb1EEEv, @function
_ZNSt5tupleIJPiSt14default_deleteIiEEEC1IS0_S2_Lb1EEEv:
.LFB2429:
	.file 1 "/usr/include/c++/9/tuple"
	.loc 1 918 12
	.cfi_startproc
	endbr64
	pushq	%rbp
	.cfi_def_cfa_offset 16
	.cfi_offset 6, -16
	movq	%rsp, %rbp
	.cfi_def_cfa_register 6
	subq	$16, %rsp
	movq	%rdi, -8(%rbp)
.LBB2:
	.loc 1 919 15
	movq	-8(%rbp), %rax
	movq	%rax, %rdi
	call	_ZNSt11_Tuple_implILm0EJPiSt14default_deleteIiEEEC2Ev
.LBE2:
	.loc 1 919 19
	nop
	leave
	.cfi_def_cfa 7, 8
	ret
	.cfi_endproc
.LFE2429:
	.size	_ZNSt5tupleIJPiSt14default_deleteIiEEEC1IS0_S2_Lb1EEEv, .-_ZNSt5tupleIJPiSt14default_deleteIiEEEC1IS0_S2_Lb1EEEv
	.section	.text._ZNSt11_Tuple_implILm0EJPiSt14default_deleteIiEEEC2Ev,"axG",@progbits,_ZNSt11_Tuple_implILm0EJPiSt14default_deleteIiEEEC2Ev,comdat
	.align 2
	.weak	_ZNSt11_Tuple_implILm0EJPiSt14default_deleteIiEEEC2Ev
	.type	_ZNSt11_Tuple_implILm0EJPiSt14default_deleteIiEEEC2Ev, @function
_ZNSt11_Tuple_implILm0EJPiSt14default_deleteIiEEEC2Ev:
.LFB2435:
	.loc 1 206 17
	.cfi_startproc
	endbr64
	pushq	%rbp
	.cfi_def_cfa_offset 16
	.cfi_offset 6, -16
	movq	%rsp, %rbp
	.cfi_def_cfa_register 6
	subq	$16, %rsp
	movq	%rdi, -8(%rbp)
.LBB3:
	.loc 1 207 29
	movq	-8(%rbp), %rax
	movq	%rax, %rdi
	call	_ZNSt11_Tuple_implILm1EJSt14default_deleteIiEEEC2Ev
	movq	-8(%rbp), %rax
	movq	%rax, %rdi
	call	_ZNSt10_Head_baseILm0EPiLb0EEC2Ev
.LBE3:
	.loc 1 207 33
	nop
	leave
	.cfi_def_cfa 7, 8
	ret
	.cfi_endproc
.LFE2435:
	.size	_ZNSt11_Tuple_implILm0EJPiSt14default_deleteIiEEEC2Ev, .-_ZNSt11_Tuple_implILm0EJPiSt14default_deleteIiEEEC2Ev
	.section	.text._ZNSt11_Tuple_implILm1EJSt14default_deleteIiEEEC2Ev,"axG",@progbits,_ZNSt11_Tuple_implILm1EJSt14default_deleteIiEEEC2Ev,comdat
	.align 2
	.weak	_ZNSt11_Tuple_implILm1EJSt14default_deleteIiEEEC2Ev
	.type	_ZNSt11_Tuple_implILm1EJSt14default_deleteIiEEEC2Ev, @function
_ZNSt11_Tuple_implILm1EJSt14default_deleteIiEEEC2Ev:
.LFB2438:
	.loc 1 339 17
	.cfi_startproc
	endbr64
	pushq	%rbp
	.cfi_def_cfa_offset 16
	.cfi_offset 6, -16
	movq	%rsp, %rbp
	.cfi_def_cfa_register 6
	subq	$16, %rsp
	movq	%rdi, -8(%rbp)
.LBB4:
	.loc 1 340 15
	movq	-8(%rbp), %rax
	movq	%rax, %rdi
	call	_ZNSt10_Head_baseILm1ESt14default_deleteIiELb1EEC2Ev
.LBE4:
	.loc 1 340 19
	nop
	leave
	.cfi_def_cfa 7, 8
	ret
	.cfi_endproc
.LFE2438:
	.size	_ZNSt11_Tuple_implILm1EJSt14default_deleteIiEEEC2Ev, .-_ZNSt11_Tuple_implILm1EJSt14default_deleteIiEEEC2Ev
	.section	.text._ZNSt10_Head_baseILm1ESt14default_deleteIiELb1EEC2Ev,"axG",@progbits,_ZNSt10_Head_baseILm1ESt14default_deleteIiELb1EEC2Ev,comdat
	.align 2
	.weak	_ZNSt10_Head_baseILm1ESt14default_deleteIiELb1EEC2Ev
	.type	_ZNSt10_Head_baseILm1ESt14default_deleteIiELb1EEC2Ev, @function
_ZNSt10_Head_baseILm1ESt14default_deleteIiELb1EEC2Ev:
.LFB2441:
	.loc 1 76 17
	.cfi_startproc
	endbr64
	pushq	%rbp
	.cfi_def_cfa_offset 16
	.cfi_offset 6, -16
	movq	%rsp, %rbp
	.cfi_def_cfa_register 6
	movq	%rdi, -8(%rbp)
	.loc 1 77 19
	nop
	popq	%rbp
	.cfi_def_cfa 7, 8
	ret
	.cfi_endproc
.LFE2441:
	.size	_ZNSt10_Head_baseILm1ESt14default_deleteIiELb1EEC2Ev, .-_ZNSt10_Head_baseILm1ESt14default_deleteIiELb1EEC2Ev
	.section	.text._ZNSt10_Head_baseILm0EPiLb0EEC2Ev,"axG",@progbits,_ZNSt10_Head_baseILm0EPiLb0EEC2Ev,comdat
	.align 2
	.weak	_ZNSt10_Head_baseILm0EPiLb0EEC2Ev
	.type	_ZNSt10_Head_baseILm0EPiLb0EEC2Ev, @function
_ZNSt10_Head_baseILm0EPiLb0EEC2Ev:
.LFB2444:
	.loc 1 122 17
	.cfi_startproc
	endbr64
	pushq	%rbp
	.cfi_def_cfa_offset 16
	.cfi_offset 6, -16
	movq	%rsp, %rbp
	.cfi_def_cfa_register 6
	movq	%rdi, -8(%rbp)
.LBB5:
	.loc 1 123 22
	movq	-8(%rbp), %rax
	movq	$0, (%rax)
.LBE5:
	.loc 1 123 26
	nop
	popq	%rbp
	.cfi_def_cfa 7, 8
	ret
	.cfi_endproc
.LFE2444:
	.size	_ZNSt10_Head_baseILm0EPiLb0EEC2Ev, .-_ZNSt10_Head_baseILm0EPiLb0EEC2Ev
	.section	.rodata
.LC0:
	.string	" "
.LC1:
	.string	"====="
	.text
	.globl	_Z6test01v
	.type	_Z6test01v, @function
_Z6test01v:
.LFB2418:
	.file 2 "/home/dd/work/c_study_code/c++/pointer/SmartPointer/main.cpp"
	.loc 2 6 1
	.cfi_startproc
	.cfi_personality 0x9b,DW.ref.__gxx_personality_v0
	.cfi_lsda 0x1b,.LLSDA2418
	endbr64
	pushq	%rbp
	.cfi_def_cfa_offset 16
	.cfi_offset 6, -16
	movq	%rsp, %rbp
	.cfi_def_cfa_register 6
	pushq	%rbx
	subq	$40, %rsp
	.cfi_offset 3, -24
	.loc 2 6 1
	movq	%fs:40, %rax
	movq	%rax, -24(%rbp)
	xorl	%eax, %eax
	.loc 2 12 37
	movl	$4, %edi
.LEHB0:
	call	_Znwm@PLT
.LEHE0:
	movl	$1000, (%rax)
	.loc 2 12 38
	leaq	-40(%rbp), %rdx
	movq	%rax, %rsi
	movq	%rdx, %rdi
	call	_ZNSt10unique_ptrIiSt14default_deleteIiEEC1IS1_vEEPi
	.loc 2 13 20
	leaq	-40(%rbp), %rax
	movq	%rax, %rdi
	call	_ZNKSt10unique_ptrIiSt14default_deleteIiEE3getEv
	.loc 2 13 21
	movq	%rax, %rsi
	leaq	_ZSt4cout(%rip), %rdi
.LEHB1:
	call	_ZNSolsEPKv@PLT
	.loc 2 13 26
	leaq	.LC0(%rip), %rsi
	movq	%rax, %rdi
	call	_ZStlsISt11char_traitsIcEERSt13basic_ostreamIcT_ES5_PKc@PLT
	.loc 2 13 26 is_stmt 0 discriminator 1
	movq	%rax, %rbx
	.loc 2 13 34 is_stmt 1 discriminator 1
	leaq	-40(%rbp), %rax
	movq	%rax, %rdi
	call	_ZNKSt10unique_ptrIiSt14default_deleteIiEEdeEv
	movl	(%rax), %eax
	movl	%eax, %esi
	movq	%rbx, %rdi
	call	_ZNSolsEi@PLT
	.loc 2 13 34 is_stmt 0 discriminator 2
	movq	%rax, %rdx
	.loc 2 13 43 is_stmt 1 discriminator 2
	movq	_ZSt4endlIcSt11char_traitsIcEERSt13basic_ostreamIT_T0_ES6_@GOTPCREL(%rip), %rax
	movq	%rax, %rsi
	movq	%rdx, %rdi
	call	_ZNSolsEPFRSoS_E@PLT
.LEHE1:
	.loc 2 15 14
	leaq	-40(%rbp), %rax
	movl	$0, %esi
	movq	%rax, %rdi
	call	_ZNSt10unique_ptrIiSt14default_deleteIiEE5resetEPi
	.loc 2 18 19
	movq	$0, -32(%rbp)
	.loc 2 19 15
	leaq	-32(%rbp), %rax
	movl	$0, %esi
	movq	%rax, %rdi
	call	_ZNSt10unique_ptrIiSt14default_deleteIiEEaSEDn
	.loc 2 20 24
	leaq	-32(%rbp), %rax
	movq	%rax, %rdi
	call	_ZNKSt10unique_ptrIiSt14default_deleteIiEE3getEv
	.loc 2 20 25
	movq	%rax, %rsi
	leaq	_ZSt4cout(%rip), %rdi
.LEHB2:
	call	_ZNSolsEPKv@PLT
	movq	%rax, %rdx
	.loc 2 20 30
	movq	_ZSt4endlIcSt11char_traitsIcEERSt13basic_ostreamIT_T0_ES6_@GOTPCREL(%rip), %rax
	movq	%rax, %rsi
	movq	%rdx, %rdi
	call	_ZNSolsEPFRSoS_E@PLT
	.loc 2 21 18
	leaq	-32(%rbp), %rax
	movl	$0, %esi
	movq	%rax, %rdi
	call	_ZNSt10unique_ptrIiSt14default_deleteIiEE5resetEPi
	.loc 2 23 13
	leaq	-32(%rbp), %rdx
	leaq	-40(%rbp), %rax
	movq	%rdx, %rsi
	movq	%rax, %rdi
	call	_ZNSt10unique_ptrIiSt14default_deleteIiEE4swapERS2_
	.loc 2 24 24
	leaq	-32(%rbp), %rax
	movq	%rax, %rdi
	call	_ZNKSt10unique_ptrIiSt14default_deleteIiEE3getEv
	.loc 2 24 25
	movq	%rax, %rsi
	leaq	_ZSt4cout(%rip), %rdi
	call	_ZNSolsEPKv@PLT
	.loc 2 24 30
	leaq	.LC0(%rip), %rsi
	movq	%rax, %rdi
	call	_ZStlsISt11char_traitsIcEERSt13basic_ostreamIcT_ES5_PKc@PLT
	.loc 2 24 30 is_stmt 0 discriminator 1
	movq	%rax, %rbx
	.loc 2 24 38 is_stmt 1 discriminator 1
	leaq	-32(%rbp), %rax
	movq	%rax, %rdi
	call	_ZNKSt10unique_ptrIiSt14default_deleteIiEEdeEv
	movl	(%rax), %eax
	movl	%eax, %esi
	movq	%rbx, %rdi
	call	_ZNSolsEi@PLT
	.loc 2 24 38 is_stmt 0 discriminator 2
	movq	%rax, %rdx
	.loc 2 24 51 is_stmt 1 discriminator 2
	movq	_ZSt4endlIcSt11char_traitsIcEERSt13basic_ostreamIT_T0_ES6_@GOTPCREL(%rip), %rax
	movq	%rax, %rsi
	movq	%rdx, %rdi
	call	_ZNSolsEPFRSoS_E@PLT
	.loc 2 25 11
	leaq	.LC1(%rip), %rsi
	leaq	_ZSt4cout(%rip), %rdi
	call	_ZStlsISt11char_traitsIcEERSt13basic_ostreamIcT_ES5_PKc@PLT
	movq	%rax, %rdx
	.loc 2 25 22
	movq	_ZSt4endlIcSt11char_traitsIcEERSt13basic_ostreamIT_T0_ES6_@GOTPCREL(%rip), %rax
	movq	%rax, %rsi
	movq	%rdx, %rdi
	call	_ZNSolsEPFRSoS_E@PLT
.LEHE2:
	.loc 2 18 19
	leaq	-32(%rbp), %rax
	movq	%rax, %rdi
	call	_ZNSt10unique_ptrIiSt14default_deleteIiEED1Ev
	.loc 2 12 38
	leaq	-40(%rbp), %rax
	movq	%rax, %rdi
	call	_ZNSt10unique_ptrIiSt14default_deleteIiEED1Ev
	.loc 2 26 1
	nop
	movq	-24(%rbp), %rax
	xorq	%fs:40, %rax
	je	.L9
	jmp	.L12
.L11:
	endbr64
	movq	%rax, %rbx
	.loc 2 18 19
	leaq	-32(%rbp), %rax
	movq	%rax, %rdi
	call	_ZNSt10unique_ptrIiSt14default_deleteIiEED1Ev
	jmp	.L8
.L10:
	endbr64
	movq	%rax, %rbx
.L8:
	.loc 2 12 38
	leaq	-40(%rbp), %rax
	movq	%rax, %rdi
	call	_ZNSt10unique_ptrIiSt14default_deleteIiEED1Ev
	movq	%rbx, %rax
	movq	%rax, %rdi
.LEHB3:
	call	_Unwind_Resume@PLT
.LEHE3:
.L12:
	.loc 2 26 1
	call	__stack_chk_fail@PLT
.L9:
	addq	$40, %rsp
	popq	%rbx
	popq	%rbp
	.cfi_def_cfa 7, 8
	ret
	.cfi_endproc
.LFE2418:
	.globl	__gxx_personality_v0
	.section	.gcc_except_table,"a",@progbits
.LLSDA2418:
	.byte	0xff
	.byte	0xff
	.byte	0x1
	.uleb128 .LLSDACSE2418-.LLSDACSB2418
.LLSDACSB2418:
	.uleb128 .LEHB0-.LFB2418
	.uleb128 .LEHE0-.LEHB0
	.uleb128 0
	.uleb128 0
	.uleb128 .LEHB1-.LFB2418
	.uleb128 .LEHE1-.LEHB1
	.uleb128 .L10-.LFB2418
	.uleb128 0
	.uleb128 .LEHB2-.LFB2418
	.uleb128 .LEHE2-.LEHB2
	.uleb128 .L11-.LFB2418
	.uleb128 0
	.uleb128 .LEHB3-.LFB2418
	.uleb128 .LEHE3-.LEHB3
	.uleb128 0
	.uleb128 0
.LLSDACSE2418:
	.text
	.size	_Z6test01v, .-_Z6test01v
	.section	.rodata
.LC2:
	.string	"cls"
	.text
	.globl	main
	.type	main, @function
main:
.LFB2446:
	.loc 2 29 1
	.cfi_startproc
	endbr64
	pushq	%rbp
	.cfi_def_cfa_offset 16
	.cfi_offset 6, -16
	movq	%rsp, %rbp
	.cfi_def_cfa_register 6
	.loc 2 30 9
	leaq	.LC2(%rip), %rdi
	call	system@PLT
	.loc 2 31 9
	call	_Z6test01v
	.loc 2 32 10
	movl	$0, %eax
	.loc 2 33 1
	popq	%rbp
	.cfi_def_cfa 7, 8
	ret
	.cfi_endproc
.LFE2446:
	.size	main, .-main
	.section	.text._ZNSt10unique_ptrIiSt14default_deleteIiEEC2IS1_vEEPi,"axG",@progbits,_ZNSt10unique_ptrIiSt14default_deleteIiEEC5IS1_vEEPi,comdat
	.align 2
	.weak	_ZNSt10unique_ptrIiSt14default_deleteIiEEC2IS1_vEEPi
	.type	_ZNSt10unique_ptrIiSt14default_deleteIiEEC2IS1_vEEPi, @function
_ZNSt10unique_ptrIiSt14default_deleteIiEEC2IS1_vEEPi:
.LFB2686:
	.file 3 "/usr/include/c++/9/bits/unique_ptr.h"
	.loc 3 211 2
	.cfi_startproc
	.cfi_personality 0x9b,DW.ref.__gxx_personality_v0
	.cfi_lsda 0x1b,.LLSDA2686
	endbr64
	pushq	%rbp
	.cfi_def_cfa_offset 16
	.cfi_offset 6, -16
	movq	%rsp, %rbp
	.cfi_def_cfa_register 6
	subq	$16, %rsp
	movq	%rdi, -8(%rbp)
	movq	%rsi, -16(%rbp)
.LBB6:
	.loc 3 212 12
	movq	-8(%rbp), %rax
	movq	-16(%rbp), %rdx
	movq	%rdx, %rsi
	movq	%rax, %rdi
	call	_ZNSt15__uniq_ptr_implIiSt14default_deleteIiEEC1EPi
.LBE6:
	.loc 3 213 11
	nop
	leave
	.cfi_def_cfa 7, 8
	ret
	.cfi_endproc
.LFE2686:
	.section	.gcc_except_table
.LLSDA2686:
	.byte	0xff
	.byte	0xff
	.byte	0x1
	.uleb128 .LLSDACSE2686-.LLSDACSB2686
.LLSDACSB2686:
.LLSDACSE2686:
	.section	.text._ZNSt10unique_ptrIiSt14default_deleteIiEEC2IS1_vEEPi,"axG",@progbits,_ZNSt10unique_ptrIiSt14default_deleteIiEEC5IS1_vEEPi,comdat
	.size	_ZNSt10unique_ptrIiSt14default_deleteIiEEC2IS1_vEEPi, .-_ZNSt10unique_ptrIiSt14default_deleteIiEEC2IS1_vEEPi
	.weak	_ZNSt10unique_ptrIiSt14default_deleteIiEEC1IS1_vEEPi
	.set	_ZNSt10unique_ptrIiSt14default_deleteIiEEC1IS1_vEEPi,_ZNSt10unique_ptrIiSt14default_deleteIiEEC2IS1_vEEPi
	.section	.text._ZNSt10unique_ptrIiSt14default_deleteIiEED2Ev,"axG",@progbits,_ZNSt10unique_ptrIiSt14default_deleteIiEED5Ev,comdat
	.align 2
	.weak	_ZNSt10unique_ptrIiSt14default_deleteIiEED2Ev
	.type	_ZNSt10unique_ptrIiSt14default_deleteIiEED2Ev, @function
_ZNSt10unique_ptrIiSt14default_deleteIiEED2Ev:
.LFB2689:
	.loc 3 286 7
	.cfi_startproc
	endbr64
	pushq	%rbp
	.cfi_def_cfa_offset 16
	.cfi_offset 6, -16
	movq	%rsp, %rbp
	.cfi_def_cfa_register 6
	pushq	%rbx
	subq	$40, %rsp
	.cfi_offset 3, -24
	movq	%rdi, -40(%rbp)
.LBB7:
.LBB8:
	.loc 3 290 8
	movq	-40(%rbp), %rax
	movq	%rax, %rdi
	call	_ZNSt15__uniq_ptr_implIiSt14default_deleteIiEE6_M_ptrEv
	movq	%rax, -24(%rbp)
	.loc 3 291 12
	movq	-24(%rbp), %rax
	movq	(%rax), %rax
	.loc 3 291 2
	testq	%rax, %rax
	je	.L17
	.loc 3 292 17
	movq	-40(%rbp), %rax
	movq	%rax, %rdi
	call	_ZNSt10unique_ptrIiSt14default_deleteIiEE11get_deleterEv
	movq	%rax, %rbx
	.loc 3 292 27
	movq	-24(%rbp), %rax
	movq	%rax, %rdi
	call	_ZSt4moveIRPiEONSt16remove_referenceIT_E4typeEOS3_
	.loc 3 292 17
	movq	(%rax), %rax
	movq	%rax, %rsi
	movq	%rbx, %rdi
	call	_ZNKSt14default_deleteIiEclEPi
.L17:
	.loc 3 293 2
	movq	-24(%rbp), %rax
	movq	$0, (%rax)
.LBE8:
.LBE7:
	.loc 3 294 7
	nop
	addq	$40, %rsp
	popq	%rbx
	popq	%rbp
	.cfi_def_cfa 7, 8
	ret
	.cfi_endproc
.LFE2689:
	.size	_ZNSt10unique_ptrIiSt14default_deleteIiEED2Ev, .-_ZNSt10unique_ptrIiSt14default_deleteIiEED2Ev
	.weak	_ZNSt10unique_ptrIiSt14default_deleteIiEED1Ev
	.set	_ZNSt10unique_ptrIiSt14default_deleteIiEED1Ev,_ZNSt10unique_ptrIiSt14default_deleteIiEED2Ev
	.section	.text._ZNKSt10unique_ptrIiSt14default_deleteIiEE3getEv,"axG",@progbits,_ZNKSt10unique_ptrIiSt14default_deleteIiEE3getEv,comdat
	.align 2
	.weak	_ZNKSt10unique_ptrIiSt14default_deleteIiEE3getEv
	.type	_ZNKSt10unique_ptrIiSt14default_deleteIiEE3getEv, @function
_ZNKSt10unique_ptrIiSt14default_deleteIiEE3getEv:
.LFB2691:
	.loc 3 360 7
	.cfi_startproc
	endbr64
	pushq	%rbp
	.cfi_def_cfa_offset 16
	.cfi_offset 6, -16
	movq	%rsp, %rbp
	.cfi_def_cfa_register 6
	subq	$16, %rsp
	movq	%rdi, -8(%rbp)
	.loc 3 361 28
	movq	-8(%rbp), %rax
	movq	%rax, %rdi
	call	_ZNKSt15__uniq_ptr_implIiSt14default_deleteIiEE6_M_ptrEv
	.loc 3 361 31
	leave
	.cfi_def_cfa 7, 8
	ret
	.cfi_endproc
.LFE2691:
	.size	_ZNKSt10unique_ptrIiSt14default_deleteIiEE3getEv, .-_ZNKSt10unique_ptrIiSt14default_deleteIiEE3getEv
	.section	.text._ZNKSt10unique_ptrIiSt14default_deleteIiEEdeEv,"axG",@progbits,_ZNKSt10unique_ptrIiSt14default_deleteIiEEdeEv,comdat
	.align 2
	.weak	_ZNKSt10unique_ptrIiSt14default_deleteIiEEdeEv
	.type	_ZNKSt10unique_ptrIiSt14default_deleteIiEEdeEv, @function
_ZNKSt10unique_ptrIiSt14default_deleteIiEEdeEv:
.LFB2694:
	.loc 3 344 7
	.cfi_startproc
	endbr64
	pushq	%rbp
	.cfi_def_cfa_offset 16
	.cfi_offset 6, -16
	movq	%rsp, %rbp
	.cfi_def_cfa_register 6
	subq	$16, %rsp
	movq	%rdi, -8(%rbp)
	.loc 3 347 9
	movq	-8(%rbp), %rax
	movq	%rax, %rdi
	call	_ZNKSt10unique_ptrIiSt14default_deleteIiEE3getEv
	.loc 3 348 7
	leave
	.cfi_def_cfa 7, 8
	ret
	.cfi_endproc
.LFE2694:
	.size	_ZNKSt10unique_ptrIiSt14default_deleteIiEEdeEv, .-_ZNKSt10unique_ptrIiSt14default_deleteIiEEdeEv
	.section	.text._ZNSt10unique_ptrIiSt14default_deleteIiEE5resetEPi,"axG",@progbits,_ZNSt10unique_ptrIiSt14default_deleteIiEE5resetEPi,comdat
	.align 2
	.weak	_ZNSt10unique_ptrIiSt14default_deleteIiEE5resetEPi
	.type	_ZNSt10unique_ptrIiSt14default_deleteIiEE5resetEPi, @function
_ZNSt10unique_ptrIiSt14default_deleteIiEE5resetEPi:
.LFB2697:
	.loc 3 395 7
	.cfi_startproc
	endbr64
	pushq	%rbp
	.cfi_def_cfa_offset 16
	.cfi_offset 6, -16
	movq	%rsp, %rbp
	.cfi_def_cfa_register 6
	pushq	%rbx
	subq	$24, %rsp
	.cfi_offset 3, -24
	movq	%rdi, -24(%rbp)
	movq	%rsi, -32(%rbp)
	.loc 3 400 6
	movq	-24(%rbp), %rax
	movq	%rax, %rdi
	call	_ZNSt15__uniq_ptr_implIiSt14default_deleteIiEE6_M_ptrEv
	movq	%rax, %rdx
	leaq	-32(%rbp), %rax
	movq	%rax, %rsi
	movq	%rdx, %rdi
	call	_ZSt4swapIPiENSt9enable_ifIXsrSt6__and_IJSt6__not_ISt15__is_tuple_likeIT_EESt21is_move_constructibleIS5_ESt18is_move_assignableIS5_EEE5valueEvE4typeERS5_SF_
	.loc 3 401 10
	movq	-32(%rbp), %rax
	.loc 3 401 2
	testq	%rax, %rax
	je	.L24
	.loc 3 402 17
	movq	-24(%rbp), %rax
	movq	%rax, %rdi
	call	_ZNSt10unique_ptrIiSt14default_deleteIiEE11get_deleterEv
	movq	%rax, %rbx
	.loc 3 402 27
	leaq	-32(%rbp), %rax
	movq	%rax, %rdi
	call	_ZSt4moveIRPiEONSt16remove_referenceIT_E4typeEOS3_
	.loc 3 402 17
	movq	(%rax), %rax
	movq	%rax, %rsi
	movq	%rbx, %rdi
	call	_ZNKSt14default_deleteIiEclEPi
.L24:
	.loc 3 403 7
	nop
	addq	$24, %rsp
	popq	%rbx
	popq	%rbp
	.cfi_def_cfa 7, 8
	ret
	.cfi_endproc
.LFE2697:
	.size	_ZNSt10unique_ptrIiSt14default_deleteIiEE5resetEPi, .-_ZNSt10unique_ptrIiSt14default_deleteIiEE5resetEPi
	.section	.text._ZNSt10unique_ptrIiSt14default_deleteIiEEaSEDn,"axG",@progbits,_ZNSt10unique_ptrIiSt14default_deleteIiEEaSEDn,comdat
	.align 2
	.weak	_ZNSt10unique_ptrIiSt14default_deleteIiEEaSEDn
	.type	_ZNSt10unique_ptrIiSt14default_deleteIiEEaSEDn, @function
_ZNSt10unique_ptrIiSt14default_deleteIiEEaSEDn:
.LFB2698:
	.loc 3 334 7
	.cfi_startproc
	endbr64
	pushq	%rbp
	.cfi_def_cfa_offset 16
	.cfi_offset 6, -16
	movq	%rsp, %rbp
	.cfi_def_cfa_register 6
	subq	$16, %rsp
	movq	%rdi, -8(%rbp)
	movq	%rsi, -16(%rbp)
	.loc 3 336 2
	movq	-8(%rbp), %rax
	movl	$0, %esi
	movq	%rax, %rdi
	call	_ZNSt10unique_ptrIiSt14default_deleteIiEE5resetEPi
	.loc 3 337 10
	movq	-8(%rbp), %rax
	.loc 3 338 7
	leave
	.cfi_def_cfa 7, 8
	ret
	.cfi_endproc
.LFE2698:
	.size	_ZNSt10unique_ptrIiSt14default_deleteIiEEaSEDn, .-_ZNSt10unique_ptrIiSt14default_deleteIiEEaSEDn
	.section	.text._ZNSt10unique_ptrIiSt14default_deleteIiEE4swapERS2_,"axG",@progbits,_ZNSt10unique_ptrIiSt14default_deleteIiEE4swapERS2_,comdat
	.align 2
	.weak	_ZNSt10unique_ptrIiSt14default_deleteIiEE4swapERS2_
	.type	_ZNSt10unique_ptrIiSt14default_deleteIiEE4swapERS2_, @function
_ZNSt10unique_ptrIiSt14default_deleteIiEE4swapERS2_:
.LFB2699:
	.loc 3 407 7
	.cfi_startproc
	endbr64
	pushq	%rbp
	.cfi_def_cfa_offset 16
	.cfi_offset 6, -16
	movq	%rsp, %rbp
	.cfi_def_cfa_register 6
	subq	$16, %rsp
	movq	%rdi, -8(%rbp)
	movq	%rsi, -16(%rbp)
	.loc 3 410 2
	movq	-8(%rbp), %rax
	.loc 3 410 16
	movq	-16(%rbp), %rdx
	.loc 3 410 2
	movq	%rdx, %rsi
	movq	%rax, %rdi
	call	_ZNSt15__uniq_ptr_implIiSt14default_deleteIiEE4swapERS2_
	.loc 3 411 7
	nop
	leave
	.cfi_def_cfa 7, 8
	ret
	.cfi_endproc
.LFE2699:
	.size	_ZNSt10unique_ptrIiSt14default_deleteIiEE4swapERS2_, .-_ZNSt10unique_ptrIiSt14default_deleteIiEE4swapERS2_
	.section	.text._ZNSt15__uniq_ptr_implIiSt14default_deleteIiEEC2EPi,"axG",@progbits,_ZNSt15__uniq_ptr_implIiSt14default_deleteIiEEC5EPi,comdat
	.align 2
	.weak	_ZNSt15__uniq_ptr_implIiSt14default_deleteIiEEC2EPi
	.type	_ZNSt15__uniq_ptr_implIiSt14default_deleteIiEEC2EPi, @function
_ZNSt15__uniq_ptr_implIiSt14default_deleteIiEEC2EPi:
.LFB2813:
	.loc 3 147 7
	.cfi_startproc
	endbr64
	pushq	%rbp
	.cfi_def_cfa_offset 16
	.cfi_offset 6, -16
	movq	%rsp, %rbp
	.cfi_def_cfa_register 6
	subq	$16, %rsp
	movq	%rdi, -8(%rbp)
	movq	%rsi, -16(%rbp)
.LBB9:
	.loc 3 147 43
	movq	-8(%rbp), %rax
	movq	%rax, %rdi
	call	_ZNSt5tupleIJPiSt14default_deleteIiEEEC1IS0_S2_Lb1EEEv
	.loc 3 147 56
	movq	-8(%rbp), %rax
	movq	%rax, %rdi
	call	_ZNSt15__uniq_ptr_implIiSt14default_deleteIiEE6_M_ptrEv
	.loc 3 147 47
	movq	-16(%rbp), %rdx
	movq	%rdx, (%rax)
.LBE9:
	.loc 3 147 63
	nop
	leave
	.cfi_def_cfa 7, 8
	ret
	.cfi_endproc
.LFE2813:
	.size	_ZNSt15__uniq_ptr_implIiSt14default_deleteIiEEC2EPi, .-_ZNSt15__uniq_ptr_implIiSt14default_deleteIiEEC2EPi
	.weak	_ZNSt15__uniq_ptr_implIiSt14default_deleteIiEEC1EPi
	.set	_ZNSt15__uniq_ptr_implIiSt14default_deleteIiEEC1EPi,_ZNSt15__uniq_ptr_implIiSt14default_deleteIiEEC2EPi
	.section	.text._ZNSt15__uniq_ptr_implIiSt14default_deleteIiEE6_M_ptrEv,"axG",@progbits,_ZNSt15__uniq_ptr_implIiSt14default_deleteIiEE6_M_ptrEv,comdat
	.align 2
	.weak	_ZNSt15__uniq_ptr_implIiSt14default_deleteIiEE6_M_ptrEv
	.type	_ZNSt15__uniq_ptr_implIiSt14default_deleteIiEE6_M_ptrEv, @function
_ZNSt15__uniq_ptr_implIiSt14default_deleteIiEE6_M_ptrEv:
.LFB2815:
	.loc 3 153 18
	.cfi_startproc
	endbr64
	pushq	%rbp
	.cfi_def_cfa_offset 16
	.cfi_offset 6, -16
	movq	%rsp, %rbp
	.cfi_def_cfa_register 6
	subq	$16, %rsp
	movq	%rdi, -8(%rbp)
	.loc 3 153 48
	movq	-8(%rbp), %rax
	.loc 3 153 47
	movq	%rax, %rdi
	call	_ZSt3getILm0EJPiSt14default_deleteIiEEERNSt13tuple_elementIXT_ESt5tupleIJDpT0_EEE4typeERS7_
	.loc 3 153 55
	leave
	.cfi_def_cfa 7, 8
	ret
	.cfi_endproc
.LFE2815:
	.size	_ZNSt15__uniq_ptr_implIiSt14default_deleteIiEE6_M_ptrEv, .-_ZNSt15__uniq_ptr_implIiSt14default_deleteIiEE6_M_ptrEv
	.section	.text._ZNSt10unique_ptrIiSt14default_deleteIiEE11get_deleterEv,"axG",@progbits,_ZNSt10unique_ptrIiSt14default_deleteIiEE11get_deleterEv,comdat
	.align 2
	.weak	_ZNSt10unique_ptrIiSt14default_deleteIiEE11get_deleterEv
	.type	_ZNSt10unique_ptrIiSt14default_deleteIiEE11get_deleterEv, @function
_ZNSt10unique_ptrIiSt14default_deleteIiEE11get_deleterEv:
.LFB2816:
	.loc 3 365 7
	.cfi_startproc
	endbr64
	pushq	%rbp
	.cfi_def_cfa_offset 16
	.cfi_offset 6, -16
	movq	%rsp, %rbp
	.cfi_def_cfa_register 6
	subq	$16, %rsp
	movq	%rdi, -8(%rbp)
	.loc 3 366 32
	movq	-8(%rbp), %rax
	movq	%rax, %rdi
	call	_ZNSt15__uniq_ptr_implIiSt14default_deleteIiEE10_M_deleterEv
	.loc 3 366 35
	leave
	.cfi_def_cfa 7, 8
	ret
	.cfi_endproc
.LFE2816:
	.size	_ZNSt10unique_ptrIiSt14default_deleteIiEE11get_deleterEv, .-_ZNSt10unique_ptrIiSt14default_deleteIiEE11get_deleterEv
	.section	.text._ZSt4moveIRPiEONSt16remove_referenceIT_E4typeEOS3_,"axG",@progbits,_ZSt4moveIRPiEONSt16remove_referenceIT_E4typeEOS3_,comdat
	.weak	_ZSt4moveIRPiEONSt16remove_referenceIT_E4typeEOS3_
	.type	_ZSt4moveIRPiEONSt16remove_referenceIT_E4typeEOS3_, @function
_ZSt4moveIRPiEONSt16remove_referenceIT_E4typeEOS3_:
.LFB2817:
	.file 4 "/usr/include/c++/9/bits/move.h"
	.loc 4 99 5
	.cfi_startproc
	endbr64
	pushq	%rbp
	.cfi_def_cfa_offset 16
	.cfi_offset 6, -16
	movq	%rsp, %rbp
	.cfi_def_cfa_register 6
	movq	%rdi, -8(%rbp)
	.loc 4 100 74
	movq	-8(%rbp), %rax
	.loc 4 100 77
	popq	%rbp
	.cfi_def_cfa 7, 8
	ret
	.cfi_endproc
.LFE2817:
	.size	_ZSt4moveIRPiEONSt16remove_referenceIT_E4typeEOS3_, .-_ZSt4moveIRPiEONSt16remove_referenceIT_E4typeEOS3_
	.section	.text._ZNKSt14default_deleteIiEclEPi,"axG",@progbits,_ZNKSt14default_deleteIiEclEPi,comdat
	.align 2
	.weak	_ZNKSt14default_deleteIiEclEPi
	.type	_ZNKSt14default_deleteIiEclEPi, @function
_ZNKSt14default_deleteIiEclEPi:
.LFB2818:
	.loc 3 75 7
	.cfi_startproc
	endbr64
	pushq	%rbp
	.cfi_def_cfa_offset 16
	.cfi_offset 6, -16
	movq	%rsp, %rbp
	.cfi_def_cfa_register 6
	subq	$16, %rsp
	movq	%rdi, -8(%rbp)
	movq	%rsi, -16(%rbp)
	.loc 3 81 9
	movq	-16(%rbp), %rax
	.loc 3 81 2
	testq	%rax, %rax
	je	.L37
	.loc 3 81 2 is_stmt 0 discriminator 1
	movl	$4, %esi
	movq	%rax, %rdi
	call	_ZdlPvm@PLT
.L37:
	.loc 3 82 7 is_stmt 1
	nop
	leave
	.cfi_def_cfa 7, 8
	ret
	.cfi_endproc
.LFE2818:
	.size	_ZNKSt14default_deleteIiEclEPi, .-_ZNKSt14default_deleteIiEclEPi
	.section	.text._ZNKSt15__uniq_ptr_implIiSt14default_deleteIiEE6_M_ptrEv,"axG",@progbits,_ZNKSt15__uniq_ptr_implIiSt14default_deleteIiEE6_M_ptrEv,comdat
	.align 2
	.weak	_ZNKSt15__uniq_ptr_implIiSt14default_deleteIiEE6_M_ptrEv
	.type	_ZNKSt15__uniq_ptr_implIiSt14default_deleteIiEE6_M_ptrEv, @function
_ZNKSt15__uniq_ptr_implIiSt14default_deleteIiEE6_M_ptrEv:
.LFB2819:
	.loc 3 154 18
	.cfi_startproc
	endbr64
	pushq	%rbp
	.cfi_def_cfa_offset 16
	.cfi_offset 6, -16
	movq	%rsp, %rbp
	.cfi_def_cfa_register 6
	subq	$16, %rsp
	movq	%rdi, -8(%rbp)
	.loc 3 154 54
	movq	-8(%rbp), %rax
	.loc 3 154 53
	movq	%rax, %rdi
	call	_ZSt3getILm0EJPiSt14default_deleteIiEEERKNSt13tuple_elementIXT_ESt5tupleIJDpT0_EEE4typeERKS7_
	.loc 3 154 58
	movq	(%rax), %rax
	.loc 3 154 61
	leave
	.cfi_def_cfa 7, 8
	ret
	.cfi_endproc
.LFE2819:
	.size	_ZNKSt15__uniq_ptr_implIiSt14default_deleteIiEE6_M_ptrEv, .-_ZNKSt15__uniq_ptr_implIiSt14default_deleteIiEE6_M_ptrEv
	.section	.text._ZSt4swapIPiENSt9enable_ifIXsrSt6__and_IJSt6__not_ISt15__is_tuple_likeIT_EESt21is_move_constructibleIS5_ESt18is_move_assignableIS5_EEE5valueEvE4typeERS5_SF_,"axG",@progbits,_ZSt4swapIPiENSt9enable_ifIXsrSt6__and_IJSt6__not_ISt15__is_tuple_likeIT_EESt21is_move_constructibleIS5_ESt18is_move_assignableIS5_EEE5valueEvE4typeERS5_SF_,comdat
	.weak	_ZSt4swapIPiENSt9enable_ifIXsrSt6__and_IJSt6__not_ISt15__is_tuple_likeIT_EESt21is_move_constructibleIS5_ESt18is_move_assignableIS5_EEE5valueEvE4typeERS5_SF_
	.type	_ZSt4swapIPiENSt9enable_ifIXsrSt6__and_IJSt6__not_ISt15__is_tuple_likeIT_EESt21is_move_constructibleIS5_ESt18is_move_assignableIS5_EEE5valueEvE4typeERS5_SF_, @function
_ZSt4swapIPiENSt9enable_ifIXsrSt6__and_IJSt6__not_ISt15__is_tuple_likeIT_EESt21is_move_constructibleIS5_ESt18is_move_assignableIS5_EEE5valueEvE4typeERS5_SF_:
.LFB2823:
	.loc 4 182 5
	.cfi_startproc
	endbr64
	pushq	%rbp
	.cfi_def_cfa_offset 16
	.cfi_offset 6, -16
	movq	%rsp, %rbp
	.cfi_def_cfa_register 6
	subq	$32, %rsp
	movq	%rdi, -24(%rbp)
	movq	%rsi, -32(%rbp)
	.loc 4 182 5
	movq	%fs:40, %rax
	movq	%rax, -8(%rbp)
	xorl	%eax, %eax
	.loc 4 193 19
	movq	-24(%rbp), %rax
	movq	%rax, %rdi
	call	_ZSt4moveIRPiEONSt16remove_referenceIT_E4typeEOS3_
	.loc 4 193 11
	movq	(%rax), %rax
	movq	%rax, -16(%rbp)
	.loc 4 194 13
	movq	-32(%rbp), %rax
	movq	%rax, %rdi
	call	_ZSt4moveIRPiEONSt16remove_referenceIT_E4typeEOS3_
	.loc 4 194 7
	movq	(%rax), %rdx
	movq	-24(%rbp), %rax
	movq	%rdx, (%rax)
	.loc 4 195 13
	leaq	-16(%rbp), %rax
	movq	%rax, %rdi
	call	_ZSt4moveIRPiEONSt16remove_referenceIT_E4typeEOS3_
	.loc 4 195 7
	movq	(%rax), %rdx
	movq	-32(%rbp), %rax
	movq	%rdx, (%rax)
	.loc 4 196 5
	nop
	movq	-8(%rbp), %rax
	xorq	%fs:40, %rax
	je	.L41
	call	__stack_chk_fail@PLT
.L41:
	leave
	.cfi_def_cfa 7, 8
	ret
	.cfi_endproc
.LFE2823:
	.size	_ZSt4swapIPiENSt9enable_ifIXsrSt6__and_IJSt6__not_ISt15__is_tuple_likeIT_EESt21is_move_constructibleIS5_ESt18is_move_assignableIS5_EEE5valueEvE4typeERS5_SF_, .-_ZSt4swapIPiENSt9enable_ifIXsrSt6__and_IJSt6__not_ISt15__is_tuple_likeIT_EESt21is_move_constructibleIS5_ESt18is_move_assignableIS5_EEE5valueEvE4typeERS5_SF_
	.section	.text._ZNSt15__uniq_ptr_implIiSt14default_deleteIiEE4swapERS2_,"axG",@progbits,_ZNSt15__uniq_ptr_implIiSt14default_deleteIiEE4swapERS2_,comdat
	.align 2
	.weak	_ZNSt15__uniq_ptr_implIiSt14default_deleteIiEE4swapERS2_
	.type	_ZNSt15__uniq_ptr_implIiSt14default_deleteIiEE4swapERS2_, @function
_ZNSt15__uniq_ptr_implIiSt14default_deleteIiEE4swapERS2_:
.LFB2824:
	.loc 3 159 7
	.cfi_startproc
	endbr64
	pushq	%rbp
	.cfi_def_cfa_offset 16
	.cfi_offset 6, -16
	movq	%rsp, %rbp
	.cfi_def_cfa_register 6
	pushq	%rbx
	subq	$24, %rsp
	.cfi_offset 3, -24
	movq	%rdi, -24(%rbp)
	movq	%rsi, -32(%rbp)
	.loc 3 162 6
	movq	-32(%rbp), %rax
	movq	%rax, %rdi
	call	_ZNSt15__uniq_ptr_implIiSt14default_deleteIiEE6_M_ptrEv
	movq	%rax, %rbx
	movq	-24(%rbp), %rax
	movq	%rax, %rdi
	call	_ZNSt15__uniq_ptr_implIiSt14default_deleteIiEE6_M_ptrEv
	movq	%rbx, %rsi
	movq	%rax, %rdi
	call	_ZSt4swapIPiENSt9enable_ifIXsrSt6__and_IJSt6__not_ISt15__is_tuple_likeIT_EESt21is_move_constructibleIS5_ESt18is_move_assignableIS5_EEE5valueEvE4typeERS5_SF_
	.loc 3 163 6
	movq	-32(%rbp), %rax
	movq	%rax, %rdi
	call	_ZNSt15__uniq_ptr_implIiSt14default_deleteIiEE10_M_deleterEv
	movq	%rax, %rbx
	movq	-24(%rbp), %rax
	movq	%rax, %rdi
	call	_ZNSt15__uniq_ptr_implIiSt14default_deleteIiEE10_M_deleterEv
	movq	%rbx, %rsi
	movq	%rax, %rdi
	call	_ZSt4swapISt14default_deleteIiEENSt9enable_ifIXsrSt6__and_IJSt6__not_ISt15__is_tuple_likeIT_EESt21is_move_constructibleIS6_ESt18is_move_assignableIS6_EEE5valueEvE4typeERS6_SG_
	.loc 3 164 7
	nop
	addq	$24, %rsp
	popq	%rbx
	popq	%rbp
	.cfi_def_cfa 7, 8
	ret
	.cfi_endproc
.LFE2824:
	.size	_ZNSt15__uniq_ptr_implIiSt14default_deleteIiEE4swapERS2_, .-_ZNSt15__uniq_ptr_implIiSt14default_deleteIiEE4swapERS2_
	.section	.text._ZSt3getILm0EJPiSt14default_deleteIiEEERNSt13tuple_elementIXT_ESt5tupleIJDpT0_EEE4typeERS7_,"axG",@progbits,_ZSt3getILm0EJPiSt14default_deleteIiEEERNSt13tuple_elementIXT_ESt5tupleIJDpT0_EEE4typeERS7_,comdat
	.weak	_ZSt3getILm0EJPiSt14default_deleteIiEEERNSt13tuple_elementIXT_ESt5tupleIJDpT0_EEE4typeERS7_
	.type	_ZSt3getILm0EJPiSt14default_deleteIiEEERNSt13tuple_elementIXT_ESt5tupleIJDpT0_EEE4typeERS7_, @function
_ZSt3getILm0EJPiSt14default_deleteIiEEERNSt13tuple_elementIXT_ESt5tupleIJDpT0_EEE4typeERS7_:
.LFB2859:
	.loc 1 1320 5
	.cfi_startproc
	endbr64
	pushq	%rbp
	.cfi_def_cfa_offset 16
	.cfi_offset 6, -16
	movq	%rsp, %rbp
	.cfi_def_cfa_register 6
	subq	$16, %rsp
	movq	%rdi, -8(%rbp)
	.loc 1 1321 36
	movq	-8(%rbp), %rax
	movq	%rax, %rdi
	call	_ZSt12__get_helperILm0EPiJSt14default_deleteIiEEERT0_RSt11_Tuple_implIXT_EJS3_DpT1_EE
	.loc 1 1321 43
	leave
	.cfi_def_cfa 7, 8
	ret
	.cfi_endproc
.LFE2859:
	.size	_ZSt3getILm0EJPiSt14default_deleteIiEEERNSt13tuple_elementIXT_ESt5tupleIJDpT0_EEE4typeERS7_, .-_ZSt3getILm0EJPiSt14default_deleteIiEEERNSt13tuple_elementIXT_ESt5tupleIJDpT0_EEE4typeERS7_
	.section	.text._ZNSt15__uniq_ptr_implIiSt14default_deleteIiEE10_M_deleterEv,"axG",@progbits,_ZNSt15__uniq_ptr_implIiSt14default_deleteIiEE10_M_deleterEv,comdat
	.align 2
	.weak	_ZNSt15__uniq_ptr_implIiSt14default_deleteIiEE10_M_deleterEv
	.type	_ZNSt15__uniq_ptr_implIiSt14default_deleteIiEE10_M_deleterEv, @function
_ZNSt15__uniq_ptr_implIiSt14default_deleteIiEE10_M_deleterEv:
.LFB2860:
	.loc 3 155 18
	.cfi_startproc
	endbr64
	pushq	%rbp
	.cfi_def_cfa_offset 16
	.cfi_offset 6, -16
	movq	%rsp, %rbp
	.cfi_def_cfa_register 6
	subq	$16, %rsp
	movq	%rdi, -8(%rbp)
	.loc 3 155 52
	movq	-8(%rbp), %rax
	.loc 3 155 51
	movq	%rax, %rdi
	call	_ZSt3getILm1EJPiSt14default_deleteIiEEERNSt13tuple_elementIXT_ESt5tupleIJDpT0_EEE4typeERS7_
	.loc 3 155 59
	leave
	.cfi_def_cfa 7, 8
	ret
	.cfi_endproc
.LFE2860:
	.size	_ZNSt15__uniq_ptr_implIiSt14default_deleteIiEE10_M_deleterEv, .-_ZNSt15__uniq_ptr_implIiSt14default_deleteIiEE10_M_deleterEv
	.section	.text._ZSt3getILm0EJPiSt14default_deleteIiEEERKNSt13tuple_elementIXT_ESt5tupleIJDpT0_EEE4typeERKS7_,"axG",@progbits,_ZSt3getILm0EJPiSt14default_deleteIiEEERKNSt13tuple_elementIXT_ESt5tupleIJDpT0_EEE4typeERKS7_,comdat
	.weak	_ZSt3getILm0EJPiSt14default_deleteIiEEERKNSt13tuple_elementIXT_ESt5tupleIJDpT0_EEE4typeERKS7_
	.type	_ZSt3getILm0EJPiSt14default_deleteIiEEERKNSt13tuple_elementIXT_ESt5tupleIJDpT0_EEE4typeERKS7_, @function
_ZSt3getILm0EJPiSt14default_deleteIiEEERKNSt13tuple_elementIXT_ESt5tupleIJDpT0_EEE4typeERKS7_:
.LFB2861:
	.loc 1 1326 5
	.cfi_startproc
	endbr64
	pushq	%rbp
	.cfi_def_cfa_offset 16
	.cfi_offset 6, -16
	movq	%rsp, %rbp
	.cfi_def_cfa_register 6
	subq	$16, %rsp
	movq	%rdi, -8(%rbp)
	.loc 1 1327 36
	movq	-8(%rbp), %rax
	movq	%rax, %rdi
	call	_ZSt12__get_helperILm0EPiJSt14default_deleteIiEEERKT0_RKSt11_Tuple_implIXT_EJS3_DpT1_EE
	.loc 1 1327 43
	leave
	.cfi_def_cfa 7, 8
	ret
	.cfi_endproc
.LFE2861:
	.size	_ZSt3getILm0EJPiSt14default_deleteIiEEERKNSt13tuple_elementIXT_ESt5tupleIJDpT0_EEE4typeERKS7_, .-_ZSt3getILm0EJPiSt14default_deleteIiEEERKNSt13tuple_elementIXT_ESt5tupleIJDpT0_EEE4typeERKS7_
	.section	.text._ZSt4moveIRSt14default_deleteIiEEONSt16remove_referenceIT_E4typeEOS4_,"axG",@progbits,_ZSt4moveIRSt14default_deleteIiEEONSt16remove_referenceIT_E4typeEOS4_,comdat
	.weak	_ZSt4moveIRSt14default_deleteIiEEONSt16remove_referenceIT_E4typeEOS4_
	.type	_ZSt4moveIRSt14default_deleteIiEEONSt16remove_referenceIT_E4typeEOS4_, @function
_ZSt4moveIRSt14default_deleteIiEEONSt16remove_referenceIT_E4typeEOS4_:
.LFB2865:
	.loc 4 99 5
	.cfi_startproc
	endbr64
	pushq	%rbp
	.cfi_def_cfa_offset 16
	.cfi_offset 6, -16
	movq	%rsp, %rbp
	.cfi_def_cfa_register 6
	movq	%rdi, -8(%rbp)
	.loc 4 100 74
	movq	-8(%rbp), %rax
	.loc 4 100 77
	popq	%rbp
	.cfi_def_cfa 7, 8
	ret
	.cfi_endproc
.LFE2865:
	.size	_ZSt4moveIRSt14default_deleteIiEEONSt16remove_referenceIT_E4typeEOS4_, .-_ZSt4moveIRSt14default_deleteIiEEONSt16remove_referenceIT_E4typeEOS4_
	.section	.text._ZSt4swapISt14default_deleteIiEENSt9enable_ifIXsrSt6__and_IJSt6__not_ISt15__is_tuple_likeIT_EESt21is_move_constructibleIS6_ESt18is_move_assignableIS6_EEE5valueEvE4typeERS6_SG_,"axG",@progbits,_ZSt4swapISt14default_deleteIiEENSt9enable_ifIXsrSt6__and_IJSt6__not_ISt15__is_tuple_likeIT_EESt21is_move_constructibleIS6_ESt18is_move_assignableIS6_EEE5valueEvE4typeERS6_SG_,comdat
	.weak	_ZSt4swapISt14default_deleteIiEENSt9enable_ifIXsrSt6__and_IJSt6__not_ISt15__is_tuple_likeIT_EESt21is_move_constructibleIS6_ESt18is_move_assignableIS6_EEE5valueEvE4typeERS6_SG_
	.type	_ZSt4swapISt14default_deleteIiEENSt9enable_ifIXsrSt6__and_IJSt6__not_ISt15__is_tuple_likeIT_EESt21is_move_constructibleIS6_ESt18is_move_assignableIS6_EEE5valueEvE4typeERS6_SG_, @function
_ZSt4swapISt14default_deleteIiEENSt9enable_ifIXsrSt6__and_IJSt6__not_ISt15__is_tuple_likeIT_EESt21is_move_constructibleIS6_ESt18is_move_assignableIS6_EEE5valueEvE4typeERS6_SG_:
.LFB2864:
	.loc 4 182 5
	.cfi_startproc
	endbr64
	pushq	%rbp
	.cfi_def_cfa_offset 16
	.cfi_offset 6, -16
	movq	%rsp, %rbp
	.cfi_def_cfa_register 6
	subq	$32, %rsp
	movq	%rdi, -24(%rbp)
	movq	%rsi, -32(%rbp)
	.loc 4 182 5
	movq	%fs:40, %rax
	movq	%rax, -8(%rbp)
	xorl	%eax, %eax
	.loc 4 193 19
	movq	-24(%rbp), %rax
	movq	%rax, %rdi
	call	_ZSt4moveIRSt14default_deleteIiEEONSt16remove_referenceIT_E4typeEOS4_
	.loc 4 194 13
	movq	-32(%rbp), %rax
	movq	%rax, %rdi
	call	_ZSt4moveIRSt14default_deleteIiEEONSt16remove_referenceIT_E4typeEOS4_
	.loc 4 195 13
	leaq	-9(%rbp), %rax
	movq	%rax, %rdi
	call	_ZSt4moveIRSt14default_deleteIiEEONSt16remove_referenceIT_E4typeEOS4_
	.loc 4 196 5
	nop
	movq	-8(%rbp), %rax
	xorq	%fs:40, %rax
	je	.L52
	call	__stack_chk_fail@PLT
.L52:
	leave
	.cfi_def_cfa 7, 8
	ret
	.cfi_endproc
.LFE2864:
	.size	_ZSt4swapISt14default_deleteIiEENSt9enable_ifIXsrSt6__and_IJSt6__not_ISt15__is_tuple_likeIT_EESt21is_move_constructibleIS6_ESt18is_move_assignableIS6_EEE5valueEvE4typeERS6_SG_, .-_ZSt4swapISt14default_deleteIiEENSt9enable_ifIXsrSt6__and_IJSt6__not_ISt15__is_tuple_likeIT_EESt21is_move_constructibleIS6_ESt18is_move_assignableIS6_EEE5valueEvE4typeERS6_SG_
	.section	.text._ZSt12__get_helperILm0EPiJSt14default_deleteIiEEERT0_RSt11_Tuple_implIXT_EJS3_DpT1_EE,"axG",@progbits,_ZSt12__get_helperILm0EPiJSt14default_deleteIiEEERT0_RSt11_Tuple_implIXT_EJS3_DpT1_EE,comdat
	.weak	_ZSt12__get_helperILm0EPiJSt14default_deleteIiEEERT0_RSt11_Tuple_implIXT_EJS3_DpT1_EE
	.type	_ZSt12__get_helperILm0EPiJSt14default_deleteIiEEERT0_RSt11_Tuple_implIXT_EJS3_DpT1_EE, @function
_ZSt12__get_helperILm0EPiJSt14default_deleteIiEEERT0_RSt11_Tuple_implIXT_EJS3_DpT1_EE:
.LFB2900:
	.loc 1 1309 5
	.cfi_startproc
	endbr64
	pushq	%rbp
	.cfi_def_cfa_offset 16
	.cfi_offset 6, -16
	movq	%rsp, %rbp
	.cfi_def_cfa_register 6
	subq	$16, %rsp
	movq	%rdi, -8(%rbp)
	.loc 1 1310 56
	movq	-8(%rbp), %rax
	movq	%rax, %rdi
	call	_ZNSt11_Tuple_implILm0EJPiSt14default_deleteIiEEE7_M_headERS3_
	.loc 1 1310 63
	leave
	.cfi_def_cfa 7, 8
	ret
	.cfi_endproc
.LFE2900:
	.size	_ZSt12__get_helperILm0EPiJSt14default_deleteIiEEERT0_RSt11_Tuple_implIXT_EJS3_DpT1_EE, .-_ZSt12__get_helperILm0EPiJSt14default_deleteIiEEERT0_RSt11_Tuple_implIXT_EJS3_DpT1_EE
	.section	.text._ZSt3getILm1EJPiSt14default_deleteIiEEERNSt13tuple_elementIXT_ESt5tupleIJDpT0_EEE4typeERS7_,"axG",@progbits,_ZSt3getILm1EJPiSt14default_deleteIiEEERNSt13tuple_elementIXT_ESt5tupleIJDpT0_EEE4typeERS7_,comdat
	.weak	_ZSt3getILm1EJPiSt14default_deleteIiEEERNSt13tuple_elementIXT_ESt5tupleIJDpT0_EEE4typeERS7_
	.type	_ZSt3getILm1EJPiSt14default_deleteIiEEERNSt13tuple_elementIXT_ESt5tupleIJDpT0_EEE4typeERS7_, @function
_ZSt3getILm1EJPiSt14default_deleteIiEEERNSt13tuple_elementIXT_ESt5tupleIJDpT0_EEE4typeERS7_:
.LFB2901:
	.loc 1 1320 5
	.cfi_startproc
	endbr64
	pushq	%rbp
	.cfi_def_cfa_offset 16
	.cfi_offset 6, -16
	movq	%rsp, %rbp
	.cfi_def_cfa_register 6
	subq	$16, %rsp
	movq	%rdi, -8(%rbp)
	.loc 1 1321 36
	movq	-8(%rbp), %rax
	movq	%rax, %rdi
	call	_ZSt12__get_helperILm1ESt14default_deleteIiEJEERT0_RSt11_Tuple_implIXT_EJS2_DpT1_EE
	.loc 1 1321 43
	leave
	.cfi_def_cfa 7, 8
	ret
	.cfi_endproc
.LFE2901:
	.size	_ZSt3getILm1EJPiSt14default_deleteIiEEERNSt13tuple_elementIXT_ESt5tupleIJDpT0_EEE4typeERS7_, .-_ZSt3getILm1EJPiSt14default_deleteIiEEERNSt13tuple_elementIXT_ESt5tupleIJDpT0_EEE4typeERS7_
	.section	.text._ZSt12__get_helperILm0EPiJSt14default_deleteIiEEERKT0_RKSt11_Tuple_implIXT_EJS3_DpT1_EE,"axG",@progbits,_ZSt12__get_helperILm0EPiJSt14default_deleteIiEEERKT0_RKSt11_Tuple_implIXT_EJS3_DpT1_EE,comdat
	.weak	_ZSt12__get_helperILm0EPiJSt14default_deleteIiEEERKT0_RKSt11_Tuple_implIXT_EJS3_DpT1_EE
	.type	_ZSt12__get_helperILm0EPiJSt14default_deleteIiEEERKT0_RKSt11_Tuple_implIXT_EJS3_DpT1_EE, @function
_ZSt12__get_helperILm0EPiJSt14default_deleteIiEEERKT0_RKSt11_Tuple_implIXT_EJS3_DpT1_EE:
.LFB2902:
	.loc 1 1314 5
	.cfi_startproc
	endbr64
	pushq	%rbp
	.cfi_def_cfa_offset 16
	.cfi_offset 6, -16
	movq	%rsp, %rbp
	.cfi_def_cfa_register 6
	subq	$16, %rsp
	movq	%rdi, -8(%rbp)
	.loc 1 1315 56
	movq	-8(%rbp), %rax
	movq	%rax, %rdi
	call	_ZNSt11_Tuple_implILm0EJPiSt14default_deleteIiEEE7_M_headERKS3_
	.loc 1 1315 63
	leave
	.cfi_def_cfa 7, 8
	ret
	.cfi_endproc
.LFE2902:
	.size	_ZSt12__get_helperILm0EPiJSt14default_deleteIiEEERKT0_RKSt11_Tuple_implIXT_EJS3_DpT1_EE, .-_ZSt12__get_helperILm0EPiJSt14default_deleteIiEEERKT0_RKSt11_Tuple_implIXT_EJS3_DpT1_EE
	.section	.text._ZNSt11_Tuple_implILm0EJPiSt14default_deleteIiEEE7_M_headERS3_,"axG",@progbits,_ZNSt11_Tuple_implILm0EJPiSt14default_deleteIiEEE7_M_headERS3_,comdat
	.weak	_ZNSt11_Tuple_implILm0EJPiSt14default_deleteIiEEE7_M_headERS3_
	.type	_ZNSt11_Tuple_implILm0EJPiSt14default_deleteIiEEE7_M_headERS3_, @function
_ZNSt11_Tuple_implILm0EJPiSt14default_deleteIiEEE7_M_headERS3_:
.LFB2932:
	.loc 1 195 7
	.cfi_startproc
	endbr64
	pushq	%rbp
	.cfi_def_cfa_offset 16
	.cfi_offset 6, -16
	movq	%rsp, %rbp
	.cfi_def_cfa_register 6
	subq	$16, %rsp
	movq	%rdi, -8(%rbp)
	.loc 1 195 65
	movq	-8(%rbp), %rax
	movq	%rax, %rdi
	call	_ZNSt10_Head_baseILm0EPiLb0EE7_M_headERS1_
	.loc 1 195 72
	leave
	.cfi_def_cfa 7, 8
	ret
	.cfi_endproc
.LFE2932:
	.size	_ZNSt11_Tuple_implILm0EJPiSt14default_deleteIiEEE7_M_headERS3_, .-_ZNSt11_Tuple_implILm0EJPiSt14default_deleteIiEEE7_M_headERS3_
	.section	.text._ZSt12__get_helperILm1ESt14default_deleteIiEJEERT0_RSt11_Tuple_implIXT_EJS2_DpT1_EE,"axG",@progbits,_ZSt12__get_helperILm1ESt14default_deleteIiEJEERT0_RSt11_Tuple_implIXT_EJS2_DpT1_EE,comdat
	.weak	_ZSt12__get_helperILm1ESt14default_deleteIiEJEERT0_RSt11_Tuple_implIXT_EJS2_DpT1_EE
	.type	_ZSt12__get_helperILm1ESt14default_deleteIiEJEERT0_RSt11_Tuple_implIXT_EJS2_DpT1_EE, @function
_ZSt12__get_helperILm1ESt14default_deleteIiEJEERT0_RSt11_Tuple_implIXT_EJS2_DpT1_EE:
.LFB2933:
	.loc 1 1309 5
	.cfi_startproc
	endbr64
	pushq	%rbp
	.cfi_def_cfa_offset 16
	.cfi_offset 6, -16
	movq	%rsp, %rbp
	.cfi_def_cfa_register 6
	subq	$16, %rsp
	movq	%rdi, -8(%rbp)
	.loc 1 1310 56
	movq	-8(%rbp), %rax
	movq	%rax, %rdi
	call	_ZNSt11_Tuple_implILm1EJSt14default_deleteIiEEE7_M_headERS2_
	.loc 1 1310 63
	leave
	.cfi_def_cfa 7, 8
	ret
	.cfi_endproc
.LFE2933:
	.size	_ZSt12__get_helperILm1ESt14default_deleteIiEJEERT0_RSt11_Tuple_implIXT_EJS2_DpT1_EE, .-_ZSt12__get_helperILm1ESt14default_deleteIiEJEERT0_RSt11_Tuple_implIXT_EJS2_DpT1_EE
	.section	.text._ZNSt11_Tuple_implILm0EJPiSt14default_deleteIiEEE7_M_headERKS3_,"axG",@progbits,_ZNSt11_Tuple_implILm0EJPiSt14default_deleteIiEEE7_M_headERKS3_,comdat
	.weak	_ZNSt11_Tuple_implILm0EJPiSt14default_deleteIiEEE7_M_headERKS3_
	.type	_ZNSt11_Tuple_implILm0EJPiSt14default_deleteIiEEE7_M_headERKS3_, @function
_ZNSt11_Tuple_implILm0EJPiSt14default_deleteIiEEE7_M_headERKS3_:
.LFB2934:
	.loc 1 198 7
	.cfi_startproc
	endbr64
	pushq	%rbp
	.cfi_def_cfa_offset 16
	.cfi_offset 6, -16
	movq	%rsp, %rbp
	.cfi_def_cfa_register 6
	subq	$16, %rsp
	movq	%rdi, -8(%rbp)
	.loc 1 198 71
	movq	-8(%rbp), %rax
	movq	%rax, %rdi
	call	_ZNSt10_Head_baseILm0EPiLb0EE7_M_headERKS1_
	.loc 1 198 78
	leave
	.cfi_def_cfa 7, 8
	ret
	.cfi_endproc
.LFE2934:
	.size	_ZNSt11_Tuple_implILm0EJPiSt14default_deleteIiEEE7_M_headERKS3_, .-_ZNSt11_Tuple_implILm0EJPiSt14default_deleteIiEEE7_M_headERKS3_
	.section	.text._ZNSt10_Head_baseILm0EPiLb0EE7_M_headERS1_,"axG",@progbits,_ZNSt10_Head_baseILm0EPiLb0EE7_M_headERS1_,comdat
	.weak	_ZNSt10_Head_baseILm0EPiLb0EE7_M_headERS1_
	.type	_ZNSt10_Head_baseILm0EPiLb0EE7_M_headERS1_, @function
_ZNSt10_Head_baseILm0EPiLb0EE7_M_headERS1_:
.LFB2962:
	.loc 1 160 7
	.cfi_startproc
	endbr64
	pushq	%rbp
	.cfi_def_cfa_offset 16
	.cfi_offset 6, -16
	movq	%rsp, %rbp
	.cfi_def_cfa_register 6
	movq	%rdi, -8(%rbp)
	.loc 1 160 54
	movq	-8(%rbp), %rax
	.loc 1 160 68
	popq	%rbp
	.cfi_def_cfa 7, 8
	ret
	.cfi_endproc
.LFE2962:
	.size	_ZNSt10_Head_baseILm0EPiLb0EE7_M_headERS1_, .-_ZNSt10_Head_baseILm0EPiLb0EE7_M_headERS1_
	.section	.text._ZNSt11_Tuple_implILm1EJSt14default_deleteIiEEE7_M_headERS2_,"axG",@progbits,_ZNSt11_Tuple_implILm1EJSt14default_deleteIiEEE7_M_headERS2_,comdat
	.weak	_ZNSt11_Tuple_implILm1EJSt14default_deleteIiEEE7_M_headERS2_
	.type	_ZNSt11_Tuple_implILm1EJSt14default_deleteIiEEE7_M_headERS2_, @function
_ZNSt11_Tuple_implILm1EJSt14default_deleteIiEEE7_M_headERS2_:
.LFB2963:
	.loc 1 334 7
	.cfi_startproc
	endbr64
	pushq	%rbp
	.cfi_def_cfa_offset 16
	.cfi_offset 6, -16
	movq	%rsp, %rbp
	.cfi_def_cfa_register 6
	subq	$16, %rsp
	movq	%rdi, -8(%rbp)
	.loc 1 334 65
	movq	-8(%rbp), %rax
	movq	%rax, %rdi
	call	_ZNSt10_Head_baseILm1ESt14default_deleteIiELb1EE7_M_headERS2_
	.loc 1 334 72
	leave
	.cfi_def_cfa 7, 8
	ret
	.cfi_endproc
.LFE2963:
	.size	_ZNSt11_Tuple_implILm1EJSt14default_deleteIiEEE7_M_headERS2_, .-_ZNSt11_Tuple_implILm1EJSt14default_deleteIiEEE7_M_headERS2_
	.section	.text._ZNSt10_Head_baseILm0EPiLb0EE7_M_headERKS1_,"axG",@progbits,_ZNSt10_Head_baseILm0EPiLb0EE7_M_headERKS1_,comdat
	.weak	_ZNSt10_Head_baseILm0EPiLb0EE7_M_headERKS1_
	.type	_ZNSt10_Head_baseILm0EPiLb0EE7_M_headERKS1_, @function
_ZNSt10_Head_baseILm0EPiLb0EE7_M_headERKS1_:
.LFB2964:
	.loc 1 163 7
	.cfi_startproc
	endbr64
	pushq	%rbp
	.cfi_def_cfa_offset 16
	.cfi_offset 6, -16
	movq	%rsp, %rbp
	.cfi_def_cfa_register 6
	movq	%rdi, -8(%rbp)
	.loc 1 163 60
	movq	-8(%rbp), %rax
	.loc 1 163 74
	popq	%rbp
	.cfi_def_cfa 7, 8
	ret
	.cfi_endproc
.LFE2964:
	.size	_ZNSt10_Head_baseILm0EPiLb0EE7_M_headERKS1_, .-_ZNSt10_Head_baseILm0EPiLb0EE7_M_headERKS1_
	.section	.text._ZNSt10_Head_baseILm1ESt14default_deleteIiELb1EE7_M_headERS2_,"axG",@progbits,_ZNSt10_Head_baseILm1ESt14default_deleteIiELb1EE7_M_headERS2_,comdat
	.weak	_ZNSt10_Head_baseILm1ESt14default_deleteIiELb1EE7_M_headERS2_
	.type	_ZNSt10_Head_baseILm1ESt14default_deleteIiELb1EE7_M_headERS2_, @function
_ZNSt10_Head_baseILm1ESt14default_deleteIiELb1EE7_M_headERS2_:
.LFB2975:
	.loc 1 113 7
	.cfi_startproc
	endbr64
	pushq	%rbp
	.cfi_def_cfa_offset 16
	.cfi_offset 6, -16
	movq	%rsp, %rbp
	.cfi_def_cfa_register 6
	movq	%rdi, -8(%rbp)
	.loc 1 113 50
	movq	-8(%rbp), %rax
	.loc 1 113 55
	popq	%rbp
	.cfi_def_cfa 7, 8
	ret
	.cfi_endproc
.LFE2975:
	.size	_ZNSt10_Head_baseILm1ESt14default_deleteIiELb1EE7_M_headERS2_, .-_ZNSt10_Head_baseILm1ESt14default_deleteIiELb1EE7_M_headERS2_
	.text
	.type	_Z41__static_initialization_and_destruction_0ii, @function
_Z41__static_initialization_and_destruction_0ii:
.LFB2994:
	.loc 2 33 1
	.cfi_startproc
	endbr64
	pushq	%rbp
	.cfi_def_cfa_offset 16
	.cfi_offset 6, -16
	movq	%rsp, %rbp
	.cfi_def_cfa_register 6
	subq	$16, %rsp
	movl	%edi, -4(%rbp)
	movl	%esi, -8(%rbp)
	.loc 2 33 1
	cmpl	$1, -4(%rbp)
	jne	.L75
	.loc 2 33 1 is_stmt 0 discriminator 1
	cmpl	$65535, -8(%rbp)
	jne	.L75
	.file 5 "/usr/include/c++/9/iostream"
	.loc 5 74 25 is_stmt 1
	leaq	_ZStL8__ioinit(%rip), %rdi
	call	_ZNSt8ios_base4InitC1Ev@PLT
	leaq	__dso_handle(%rip), %rdx
	leaq	_ZStL8__ioinit(%rip), %rsi
	movq	_ZNSt8ios_base4InitD1Ev@GOTPCREL(%rip), %rax
	movq	%rax, %rdi
	call	__cxa_atexit@PLT
.L75:
	.loc 2 33 1
	nop
	leave
	.cfi_def_cfa 7, 8
	ret
	.cfi_endproc
.LFE2994:
	.size	_Z41__static_initialization_and_destruction_0ii, .-_Z41__static_initialization_and_destruction_0ii
	.type	_GLOBAL__sub_I__Z6test01v, @function
_GLOBAL__sub_I__Z6test01v:
.LFB2995:
	.loc 2 33 1
	.cfi_startproc
	endbr64
	pushq	%rbp
	.cfi_def_cfa_offset 16
	.cfi_offset 6, -16
	movq	%rsp, %rbp
	.cfi_def_cfa_register 6
	.loc 2 33 1
	movl	$65535, %esi
	movl	$1, %edi
	call	_Z41__static_initialization_and_destruction_0ii
	popq	%rbp
	.cfi_def_cfa 7, 8
	ret
	.cfi_endproc
.LFE2995:
	.size	_GLOBAL__sub_I__Z6test01v, .-_GLOBAL__sub_I__Z6test01v
	.section	.init_array,"aw"
	.align 8
	.quad	_GLOBAL__sub_I__Z6test01v
	.text
.Letext0:
	.file 6 "/usr/include/c++/9/cwchar"
	.file 7 "/usr/include/c++/9/new"
	.file 8 "/usr/include/c++/9/bits/exception_ptr.h"
	.file 9 "/usr/include/c++/9/type_traits"
	.file 10 "/usr/include/x86_64-linux-gnu/c++/9/bits/c++config.h"
	.file 11 "/usr/include/c++/9/bits/cpp_type_traits.h"
	.file 12 "/usr/include/c++/9/bits/stl_pair.h"
	.file 13 "/usr/include/c++/9/debug/debug.h"
	.file 14 "/usr/include/c++/9/bits/char_traits.h"
	.file 15 "/usr/include/c++/9/cstdint"
	.file 16 "/usr/include/c++/9/clocale"
	.file 17 "/usr/include/c++/9/cstdlib"
	.file 18 "/usr/include/c++/9/cstdio"
	.file 19 "/usr/include/c++/9/bits/basic_string.h"
	.file 20 "/usr/include/c++/9/system_error"
	.file 21 "/usr/include/c++/9/bits/ios_base.h"
	.file 22 "/usr/include/c++/9/cwctype"
	.file 23 "/usr/include/c++/9/iosfwd"
	.file 24 "/usr/include/c++/9/bits/uses_allocator.h"
	.file 25 "/usr/include/c++/9/bits/shared_ptr_base.h"
	.file 26 "/usr/include/c++/9/utility"
	.file 27 "/usr/include/c++/9/bits/predefined_ops.h"
	.file 28 "/usr/include/c++/9/ext/new_allocator.h"
	.file 29 "/usr/include/c++/9/ext/numeric_traits.h"
	.file 30 "/usr/lib/gcc/x86_64-linux-gnu/9/include/stddef.h"
	.file 31 "<built-in>"
	.file 32 "/usr/include/x86_64-linux-gnu/bits/types/wint_t.h"
	.file 33 "/usr/include/x86_64-linux-gnu/bits/types/__mbstate_t.h"
	.file 34 "/usr/include/x86_64-linux-gnu/bits/types/mbstate_t.h"
	.file 35 "/usr/include/x86_64-linux-gnu/bits/types/__FILE.h"
	.file 36 "/usr/include/x86_64-linux-gnu/bits/types/struct_FILE.h"
	.file 37 "/usr/include/x86_64-linux-gnu/bits/types/FILE.h"
	.file 38 "/usr/include/wchar.h"
	.file 39 "/usr/include/x86_64-linux-gnu/bits/types/struct_tm.h"
	.file 40 "/usr/include/x86_64-linux-gnu/bits/types.h"
	.file 41 "/usr/include/x86_64-linux-gnu/bits/stdint-intn.h"
	.file 42 "/usr/include/x86_64-linux-gnu/bits/stdint-uintn.h"
	.file 43 "/usr/include/stdint.h"
	.file 44 "/usr/include/locale.h"
	.file 45 "/usr/include/c++/9/ext/concurrence.h"
	.file 46 "/usr/include/time.h"
	.file 47 "/usr/include/pthread.h"
	.file 48 "/usr/include/x86_64-linux-gnu/c++/9/bits/atomic_word.h"
	.file 49 "/usr/include/stdlib.h"
	.file 50 "/usr/include/x86_64-linux-gnu/bits/types/__fpos_t.h"
	.file 51 "/usr/include/stdio.h"
	.file 52 "/usr/include/x86_64-linux-gnu/bits/sys_errlist.h"
	.file 53 "/usr/include/errno.h"
	.file 54 "/usr/include/x86_64-linux-gnu/bits/wctype-wchar.h"
	.file 55 "/usr/include/wctype.h"
	.section	.data.rel.local.DW.ref.__gxx_personality_v0,"awG",@progbits,DW.ref.__gxx_personality_v0,comdat
	.align 8
	.type	DW.ref.__gxx_personality_v0, @object
	.size	DW.ref.__gxx_personality_v0, 8
DW.ref.__gxx_personality_v0:
	.quad	__gxx_personality_v0
	.hidden	__dso_handle
	.ident	"GCC: (Ubuntu 9.3.0-17ubuntu1~20.04) 9.3.0"
	.section	.note.GNU-stack,"",@progbits
	.section	.note.gnu.property,"a"
	.align 8
	.long	 1f - 0f
	.long	 4f - 1f
	.long	 5
0:
	.string	 "GNU"
1:
	.align 8
	.long	 0xc0000002
	.long	 3f - 2f
2:
	.long	 0x3
3:
	.align 8
4:
